target datalayout = "e-m:e-p270:32:32-p271:32:32-p272:64:64-i64:64-i128:128-f80:128-n8:16:32:64-S128"
target triple = "x86_64-pc-linux-gnu"

%struct.FilterParams = type { i32, double, ptr, ptr, ptr }

; Function Attrs: nounwind uwtable
define internal void @blend_difference_14bit(ptr noundef %0, i64 noundef %1, ptr noundef %2, i64 noundef %3, ptr noundef %4, i64 noundef %5, i64 noundef %6, i64 noundef %7, ptr noundef %8, ptr noundef %9) #0 {
  %11 = alloca ptr, align 8
  %12 = alloca i64, align 8
  %13 = alloca ptr, align 8
  %14 = alloca i64, align 8
  %15 = alloca ptr, align 8
  %16 = alloca i64, align 8
  %17 = alloca i64, align 8
  %18 = alloca i64, align 8
  %19 = alloca ptr, align 8
  %20 = alloca ptr, align 8
  %21 = alloca ptr, align 8
  %22 = alloca ptr, align 8
  %23 = alloca ptr, align 8
  %24 = alloca float, align 4
  %25 = alloca i32, align 4
  %26 = alloca i32, align 4
  %27 = alloca i32, align 4
  store ptr %0, ptr %11, align 8, !tbaa !46
  store i64 %1, ptr %12, align 8, !tbaa !88
  store ptr %2, ptr %13, align 8, !tbaa !46
  store i64 %3, ptr %14, align 8, !tbaa !88
  store ptr %4, ptr %15, align 8, !tbaa !46
  store i64 %5, ptr %16, align 8, !tbaa !88
  store i64 %6, ptr %17, align 8, !tbaa !88
  store i64 %7, ptr %18, align 8, !tbaa !88
  store ptr %8, ptr %19, align 8, !tbaa !77
  store ptr %9, ptr %20, align 8, !tbaa !89
  call void @llvm.lifetime.start.p0(i64 8, ptr %21) #12
  %28 = load ptr, ptr %11, align 8, !tbaa !46
  store ptr %28, ptr %21, align 8, !tbaa !103
  call void @llvm.lifetime.start.p0(i64 8, ptr %22) #12
  %29 = load ptr, ptr %13, align 8, !tbaa !46
  store ptr %29, ptr %22, align 8, !tbaa !103
  call void @llvm.lifetime.start.p0(i64 8, ptr %23) #12
  %30 = load ptr, ptr %15, align 8, !tbaa !46
  store ptr %30, ptr %23, align 8, !tbaa !103
  call void @llvm.lifetime.start.p0(i64 4, ptr %24) #12
  %31 = load ptr, ptr %19, align 8, !tbaa !77
  %32 = getelementptr inbounds nuw %struct.FilterParams, ptr %31, i32 0, i32 1
  %33 = load double, ptr %32, align 8, !tbaa !82
  %34 = fptrunc nsz double %33 to float
  store float %34, ptr %24, align 4, !tbaa !99
  %35 = load i64, ptr %16, align 8, !tbaa !88
  %36 = udiv i64 %35, 2
  store i64 %36, ptr %16, align 8, !tbaa !88
  %37 = load i64, ptr %12, align 8, !tbaa !88
  %38 = udiv i64 %37, 2
  store i64 %38, ptr %12, align 8, !tbaa !88
  %39 = load i64, ptr %14, align 8, !tbaa !88
  %40 = udiv i64 %39, 2
  store i64 %40, ptr %14, align 8, !tbaa !88
  call void @llvm.lifetime.start.p0(i64 4, ptr %25) #12
  store i32 0, ptr %25, align 4, !tbaa !37
  br label %41

41:                                               ; preds = %135, %10
  %42 = load i32, ptr %25, align 4, !tbaa !37
  %43 = sext i32 %42 to i64
  %44 = load i64, ptr %18, align 8, !tbaa !88
  %45 = icmp slt i64 %43, %44
  br i1 %45, label %47, label %46

46:                                               ; preds = %41
  store i32 2, ptr %26, align 4
  call void @llvm.lifetime.end.p0(i64 4, ptr %25) #12
  br label %138

47:                                               ; preds = %41
  call void @llvm.lifetime.start.p0(i64 4, ptr %27) #12
  store i32 0, ptr %27, align 4, !tbaa !37
  br label %48

48:                                               ; preds = %122, %47
  %49 = load i32, ptr %27, align 4, !tbaa !37
  %50 = sext i32 %49 to i64
  %51 = load i64, ptr %17, align 8, !tbaa !88
  %52 = icmp slt i64 %50, %51
  br i1 %52, label %54, label %53

53:                                               ; preds = %48
  store i32 5, ptr %26, align 4
  call void @llvm.lifetime.end.p0(i64 4, ptr %27) #12
  br label %125

54:                                               ; preds = %48
  %55 = load ptr, ptr %21, align 8, !tbaa !103
  %56 = load i32, ptr %27, align 4, !tbaa !37
  %57 = sext i32 %56 to i64
  %58 = getelementptr inbounds i16, ptr %55, i64 %57
  %59 = load i16, ptr %58, align 2, !tbaa !105
  %60 = zext i16 %59 to i32
  %61 = sitofp i32 %60 to float
  %62 = load ptr, ptr %21, align 8, !tbaa !103
  %63 = load i32, ptr %27, align 4, !tbaa !37
  %64 = sext i32 %63 to i64
  %65 = getelementptr inbounds i16, ptr %62, i64 %64
  %66 = load i16, ptr %65, align 2, !tbaa !105
  %67 = zext i16 %66 to i32
  %68 = load ptr, ptr %22, align 8, !tbaa !103
  %69 = load i32, ptr %27, align 4, !tbaa !37
  %70 = sext i32 %69 to i64
  %71 = getelementptr inbounds i16, ptr %68, i64 %70
  %72 = load i16, ptr %71, align 2, !tbaa !105
  %73 = zext i16 %72 to i32
  %74 = sub nsw i32 %67, %73
  %75 = icmp sge i32 %74, 0
  br i1 %75, label %76, label %90

76:                                               ; preds = %54
  %77 = load ptr, ptr %21, align 8, !tbaa !103
  %78 = load i32, ptr %27, align 4, !tbaa !37
  %79 = sext i32 %78 to i64
  %80 = getelementptr inbounds i16, ptr %77, i64 %79
  %81 = load i16, ptr %80, align 2, !tbaa !105
  %82 = zext i16 %81 to i32
  %83 = load ptr, ptr %22, align 8, !tbaa !103
  %84 = load i32, ptr %27, align 4, !tbaa !37
  %85 = sext i32 %84 to i64
  %86 = getelementptr inbounds i16, ptr %83, i64 %85
  %87 = load i16, ptr %86, align 2, !tbaa !105
  %88 = zext i16 %87 to i32
  %89 = sub nsw i32 %82, %88
  br label %105

90:                                               ; preds = %54
  %91 = load ptr, ptr %21, align 8, !tbaa !103
  %92 = load i32, ptr %27, align 4, !tbaa !37
  %93 = sext i32 %92 to i64
  %94 = getelementptr inbounds i16, ptr %91, i64 %93
  %95 = load i16, ptr %94, align 2, !tbaa !105
  %96 = zext i16 %95 to i32
  %97 = load ptr, ptr %22, align 8, !tbaa !103
  %98 = load i32, ptr %27, align 4, !tbaa !37
  %99 = sext i32 %98 to i64
  %100 = getelementptr inbounds i16, ptr %97, i64 %99
  %101 = load i16, ptr %100, align 2, !tbaa !105
  %102 = zext i16 %101 to i32
  %103 = sub nsw i32 %96, %102
  %104 = sub nsw i32 0, %103
  br label %105

105:                                              ; preds = %90, %76
  %106 = phi i32 [ %89, %76 ], [ %104, %90 ]
  %107 = load ptr, ptr %21, align 8, !tbaa !103
  %108 = load i32, ptr %27, align 4, !tbaa !37
  %109 = sext i32 %108 to i64
  %110 = getelementptr inbounds i16, ptr %107, i64 %109
  %111 = load i16, ptr %110, align 2, !tbaa !105
  %112 = zext i16 %111 to i32
  %113 = sub nsw i32 %106, %112
  %114 = sitofp i32 %113 to float
  %115 = load float, ptr %24, align 4, !tbaa !99
  %116 = call nsz float @llvm.fmuladd.f32(float %114, float %115, float %61)
  %117 = fptoui float %116 to i16
  %118 = load ptr, ptr %23, align 8, !tbaa !103
  %119 = load i32, ptr %27, align 4, !tbaa !37
  %120 = sext i32 %119 to i64
  %121 = getelementptr inbounds i16, ptr %118, i64 %120
  store i16 %117, ptr %121, align 2, !tbaa !105
  br label %122

122:                                              ; preds = %105
  %123 = load i32, ptr %27, align 4, !tbaa !37
  %124 = add nsw i32 %123, 1
  store i32 %124, ptr %27, align 4, !tbaa !37
  br label %48, !llvm.loop !440

125:                                              ; preds = %53
  %126 = load i64, ptr %16, align 8, !tbaa !88
  %127 = load ptr, ptr %23, align 8, !tbaa !103
  %128 = getelementptr inbounds i16, ptr %127, i64 %126
  store ptr %128, ptr %23, align 8, !tbaa !103
  %129 = load i64, ptr %12, align 8, !tbaa !88
  %130 = load ptr, ptr %21, align 8, !tbaa !103
  %131 = getelementptr inbounds i16, ptr %130, i64 %129
  store ptr %131, ptr %21, align 8, !tbaa !103
  %132 = load i64, ptr %14, align 8, !tbaa !88
  %133 = load ptr, ptr %22, align 8, !tbaa !103
  %134 = getelementptr inbounds i16, ptr %133, i64 %132
  store ptr %134, ptr %22, align 8, !tbaa !103
  br label %135

135:                                              ; preds = %125
  %136 = load i32, ptr %25, align 4, !tbaa !37
  %137 = add nsw i32 %136, 1
  store i32 %137, ptr %25, align 4, !tbaa !37
  br label %41, !llvm.loop !441

138:                                              ; preds = %46
  call void @llvm.lifetime.end.p0(i64 4, ptr %24) #12
  call void @llvm.lifetime.end.p0(i64 8, ptr %23) #12
  call void @llvm.lifetime.end.p0(i64 8, ptr %22) #12
  call void @llvm.lifetime.end.p0(i64 8, ptr %21) #12
  ret void
}